target datalayout = "e-m:e-p270:32:32-p271:32:32-p272:64:64-i64:64-i128:128-f80:128-n8:16:32:64-S128"
target triple = "x86_64-pc-linux-gnu"

; Function Attrs: mustprogress uwtable
define noundef zeroext i1 @_ZNK10open_spiel18twenty_forty_eight21TwentyFortyEightState20TileMatchesAvailableEv(ptr noundef nonnull align 8 dereferenceable(120) %0) #4 align 2 {
  %2 = alloca i1, align 1
  %3 = alloca ptr, align 8
  %4 = alloca i32, align 4
  %5 = alloca i32, align 4
  store ptr %0, ptr %3, align 8
  %6 = load ptr, ptr %3, align 8
  store i32 0, ptr %4, align 4
  br label %7

7:                                                ; preds = %24, %1
  %8 = load i32, ptr %4, align 4
  %9 = icmp slt i32 %8, 4
  br i1 %9, label %10, label %27

10:                                               ; preds = %7
  store i32 0, ptr %5, align 4
  br label %11

11:                                               ; preds = %20, %10
  %12 = load i32, ptr %5, align 4
  %13 = icmp slt i32 %12, 4
  br i1 %13, label %14, label %23

14:                                               ; preds = %11
  %15 = load i32, ptr %4, align 4
  %16 = load i32, ptr %5, align 4
  %17 = call noundef zeroext i1 @_ZNK10open_spiel18twenty_forty_eight21TwentyFortyEightState18TileMatchAvailableEii(ptr noundef nonnull align 8 dereferenceable(120) %6, i32 noundef %15, i32 noundef %16)
  br i1 %17, label %18, label %19

18:                                               ; preds = %14
  store i1 true, ptr %2, align 1
  br label %28

19:                                               ; preds = %14
  br label %20

20:                                               ; preds = %19
  %21 = load i32, ptr %5, align 4
  %22 = add nsw i32 %21, 1
  store i32 %22, ptr %5, align 4
  br label %11, !llvm.loop !8

23:                                               ; preds = %11
  br label %24

24:                                               ; preds = %23
  %25 = load i32, ptr %4, align 4
  %26 = add nsw i32 %25, 1
  store i32 %26, ptr %4, align 4
  br label %7, !llvm.loop !9

27:                                               ; preds = %7
  store i1 false, ptr %2, align 1
  br label %28

28:                                               ; preds = %27, %18
  %29 = load i1, ptr %2, align 1
  ret i1 %29
}