; Function Attrs: mustprogress uwtable
define noundef zeroext i1 @_ZNK10open_spiel18twenty_forty_eight21TwentyFortyEightState20TileMatchesAvailableEv(ptr noundef nonnull readonly align 8 captures(none) dereferenceable(120) %0) local_unnamed_addr #3 align 2 {
  br label %.preheader

.preheader:                                       ; preds = %1, %6
  %.0712 = phi i32 [ 0, %1 ], [ %7, %6 ]
  br label %4

2:                                                ; preds = %4
  %3 = add nuw nsw i32 %.011, 1
  %exitcond.not = icmp eq i32 %3, 4
  br i1 %exitcond.not, label %6, label %4, !llvm.loop !9

4:                                                ; preds = %.preheader, %2
  %.011 = phi i32 [ 0, %.preheader ], [ %3, %2 ]
  %5 = tail call noundef zeroext i1 @_ZNK10open_spiel18twenty_forty_eight21TwentyFortyEightState18TileMatchAvailableEii(ptr noundef nonnull align 8 dereferenceable(120) %0, i32 noundef %.0712, i32 noundef %.011)
  br i1 %5, label %.loopexit, label %2

6:                                                ; preds = %2
  %7 = add nuw nsw i32 %.0712, 1
  %exitcond15.not = icmp eq i32 %7, 4
  br i1 %exitcond15.not, label %.loopexit, label %.preheader, !llvm.loop !10

.loopexit:                                        ; preds = %6, %4
  ret i1 %5
}